target datalayout = "e-m:e-p270:32:32-p271:32:32-p272:64:64-i64:64-i128:128-f80:128-n8:16:32:64-S128"
target triple = "x86_64-pc-linux-gnu"

%struct.SDL_DriverXbox360W_Context = type { ptr, i8, i32, i8, [64 x i8] }
%struct.SDL_HIDAPI_Device = type { ptr, ptr, ptr, ptr, i16, i16, i16, ptr, %struct.SDL_GUID, i32, i32, i32, i32, i16, i16, i8, i32, i32, i32, ptr, ptr, ptr, ptr, %struct.SDL_AtomicInt, i32, ptr, i8, i8, i8, ptr, i32, ptr, ptr }
%struct.SDL_GUID = type { [16 x i8] }
%struct.SDL_AtomicInt = type { i32 }

@__const.HIDAPI_DriverXbox360W_InitDevice.init_packet = private unnamed_addr constant <{ i8, i8, i8, i8, [8 x i8] }> <{ i8 8, i8 0, i8 15, i8 -64, [8 x i8] zeroinitializer }>, align 1
@.str.4 = private unnamed_addr constant [29 x i8] c"Xbox 360 Wireless Controller\00", align 1
@.str.5 = private unnamed_addr constant [27 x i8] c"Couldn't write init packet\00", align 1

; Function Attrs: nounwind uwtable
define internal zeroext i1 @HIDAPI_DriverXbox360W_InitDevice(ptr noundef %0) #0 {
  %2 = alloca i1, align 1
  %3 = alloca ptr, align 8
  %4 = alloca ptr, align 8
  %5 = alloca [12 x i8], align 1
  %6 = alloca i32, align 4
  store ptr %0, ptr %3, align 8
  call void @llvm.lifetime.start.p0(i64 8, ptr %4) #6
  call void @llvm.lifetime.start.p0(i64 12, ptr %5) #6
  call void @llvm.memcpy.p0.p0.i64(ptr align 1 %5, ptr align 1 @__const.HIDAPI_DriverXbox360W_InitDevice.init_packet, i64 12, i1 false)
  %7 = load ptr, ptr %3, align 8
  call void @HIDAPI_SetDeviceName(ptr noundef %7, ptr noundef @.str.4)
  %8 = call noalias ptr @SDL_calloc_REAL(i64 noundef 1, i64 noundef 88) #7
  store ptr %8, ptr %4, align 8
  %9 = load ptr, ptr %4, align 8
  %10 = icmp ne ptr %9, null
  br i1 %10, label %12, label %11

11:                                               ; preds = %1
  store i1 false, ptr %2, align 1
  store i32 1, ptr %6, align 4
  br label %31

12:                                               ; preds = %1
  %13 = load ptr, ptr %3, align 8
  %14 = load ptr, ptr %4, align 8
  %15 = getelementptr inbounds nuw %struct.SDL_DriverXbox360W_Context, ptr %14, i32 0, i32 0
  store ptr %13, ptr %15, align 8
  %16 = load ptr, ptr %4, align 8
  %17 = load ptr, ptr %3, align 8
  %18 = getelementptr inbounds nuw %struct.SDL_HIDAPI_Device, ptr %17, i32 0, i32 20
  store ptr %16, ptr %18, align 8
  %19 = load ptr, ptr %3, align 8
  %20 = getelementptr inbounds nuw %struct.SDL_HIDAPI_Device, ptr %19, i32 0, i32 22
  %21 = load ptr, ptr %20, align 8
  %22 = getelementptr inbounds [12 x i8], ptr %5, i64 0, i64 0
  %23 = call i32 @SDL_hid_write_REAL(ptr noundef %21, ptr noundef %22, i64 noundef 12)
  %24 = sext i32 %23 to i64
  %25 = icmp ne i64 %24, 12
  br i1 %25, label %26, label %28

26:                                               ; preds = %12
  %27 = call zeroext i1 (ptr, ...) @SDL_SetError_REAL(ptr noundef @.str.5)
  store i1 false, ptr %2, align 1
  store i32 1, ptr %6, align 4
  br label %31

28:                                               ; preds = %12
  %29 = load ptr, ptr %3, align 8
  %30 = getelementptr inbounds nuw %struct.SDL_HIDAPI_Device, ptr %29, i32 0, i32 17
  store i32 2, ptr %30, align 4
  store i1 true, ptr %2, align 1
  store i32 1, ptr %6, align 4
  br label %31

31:                                               ; preds = %28, %26, %11
  call void @llvm.lifetime.end.p0(i64 12, ptr %5) #6
  call void @llvm.lifetime.end.p0(i64 8, ptr %4) #6
  %32 = load i1, ptr %2, align 1
  ret i1 %32
}