; Function Attrs: nounwind uwtable
define internal noundef zeroext i1 @HIDAPI_DriverXbox360W_InitDevice(ptr noundef %0) #0 {
  %2 = alloca [12 x i8], align 1
  call void @llvm.lifetime.start.p0(i64 12, ptr nonnull %2) #8
  call void @llvm.memcpy.p0.p0.i64(ptr noundef nonnull align 1 dereferenceable(12) %2, ptr noundef nonnull align 1 dereferenceable(12) @__const.HIDAPI_DriverXbox360W_InitDevice.init_packet, i64 12, i1 false)
  tail call void @HIDAPI_SetDeviceName(ptr noundef %0, ptr noundef nonnull @.str.4) #8
  %3 = tail call noalias dereferenceable_or_null(88) ptr @SDL_calloc_REAL(i64 noundef 1, i64 noundef 88) #9
  %.not = icmp eq ptr %3, null
  br i1 %.not, label %13, label %4

4:                                                ; preds = %1
  store ptr %0, ptr %3, align 8
  %5 = getelementptr inbounds nuw i8, ptr %0, i64 112
  store ptr %3, ptr %5, align 8
  %6 = getelementptr inbounds nuw i8, ptr %0, i64 128
  %7 = load ptr, ptr %6, align 8
  %8 = call i32 @SDL_hid_write_REAL(ptr noundef %7, ptr noundef nonnull %2, i64 noundef 12) #8
  %.not10 = icmp eq i32 %8, 12
  br i1 %.not10, label %11, label %9

9:                                                ; preds = %4
  %10 = call zeroext i1 (ptr, ...) @SDL_SetError_REAL(ptr noundef nonnull @.str.5) #8
  br label %13

11:                                               ; preds = %4
  %12 = getelementptr inbounds nuw i8, ptr %0, i64 92
  store i32 2, ptr %12, align 4
  br label %13

13:                                               ; preds = %1, %11, %9
  %.0 = phi i1 [ false, %9 ], [ true, %11 ], [ false, %1 ]
  call void @llvm.lifetime.end.p0(i64 12, ptr nonnull %2) #8
  ret i1 %.0
}